; Function Attrs: mustprogress uwtable
define hidden void @_ZN13GCApplication5resetEv(ptr noundef nonnull align 8 dereferenceable(428) %0) local_unnamed_addr #4 align 2 personality ptr @__gxx_personality_v0 {
  %2 = alloca %"class.cv::_InputArray", align 8
  %3 = alloca %"class.cv::Scalar_", align 8
  %4 = getelementptr inbounds nuw i8, ptr %0, i64 16
  %5 = tail call noundef zeroext i1 @_ZNK2cv3Mat5emptyEv(ptr noundef nonnull align 8 dereferenceable(96) %4)
  br i1 %5, label %11, label %6

6:                                                ; preds = %1
  call void @llvm.lifetime.start.p0(i64 24, ptr nonnull %2) #17
  call void @llvm.lifetime.start.p0(i64 32, ptr nonnull %3) #17
  %7 = getelementptr inbounds nuw i8, ptr %2, i64 16
  call void @llvm.memset.p0.i64(ptr noundef nonnull align 8 dereferenceable(32) %3, i8 0, i64 32, i1 false)
  store i32 -1056833530, ptr %2, align 8, !tbaa !4
  %8 = getelementptr inbounds nuw i8, ptr %2, i64 8
  store ptr %3, ptr %8, align 8, !tbaa !11
  store i64 17179869185, ptr %7, align 8
  %9 = call noundef nonnull align 8 dereferenceable(24) ptr @_ZN2cv7noArrayEv()
  %10 = call noundef nonnull align 8 dereferenceable(96) ptr @_ZN2cv3Mat5setToERKNS_11_InputArrayES3_(ptr noundef nonnull align 8 dereferenceable(96) %4, ptr noundef nonnull align 8 dereferenceable(24) %2, ptr noundef nonnull align 8 dereferenceable(24) %9)
  call void @llvm.lifetime.end.p0(i64 32, ptr nonnull %3) #17
  call void @llvm.lifetime.end.p0(i64 24, ptr nonnull %2) #17
  br label %11

11:                                               ; preds = %6, %1
  %12 = getelementptr inbounds nuw i8, ptr %0, i64 352
  %13 = load ptr, ptr %12, align 8, !tbaa !12
  %14 = getelementptr inbounds nuw i8, ptr %0, i64 360
  %15 = load ptr, ptr %14, align 8, !tbaa !15
  %.not.i.i = icmp eq ptr %15, %13
  br i1 %.not.i.i, label %_ZNSt6vectorIN2cv6Point_IiEESaIS2_EE5clearEv.exit, label %16

16:                                               ; preds = %11
  store ptr %13, ptr %14, align 8, !tbaa !15
  br label %_ZNSt6vectorIN2cv6Point_IiEESaIS2_EE5clearEv.exit

_ZNSt6vectorIN2cv6Point_IiEESaIS2_EE5clearEv.exit: ; preds = %11, %16
  %17 = getelementptr inbounds nuw i8, ptr %0, i64 328
  %18 = load ptr, ptr %17, align 8, !tbaa !12
  %19 = getelementptr inbounds nuw i8, ptr %0, i64 336
  %20 = load ptr, ptr %19, align 8, !tbaa !15
  %.not.i.i2 = icmp eq ptr %20, %18
  br i1 %.not.i.i2, label %_ZNSt6vectorIN2cv6Point_IiEESaIS2_EE5clearEv.exit3, label %21

21:                                               ; preds = %_ZNSt6vectorIN2cv6Point_IiEESaIS2_EE5clearEv.exit
  store ptr %18, ptr %19, align 8, !tbaa !15
  br label %_ZNSt6vectorIN2cv6Point_IiEESaIS2_EE5clearEv.exit3

_ZNSt6vectorIN2cv6Point_IiEESaIS2_EE5clearEv.exit3: ; preds = %_ZNSt6vectorIN2cv6Point_IiEESaIS2_EE5clearEv.exit, %21
  %22 = getelementptr inbounds nuw i8, ptr %0, i64 400
  %23 = load ptr, ptr %22, align 8, !tbaa !12
  %24 = getelementptr inbounds nuw i8, ptr %0, i64 408
  %25 = load ptr, ptr %24, align 8, !tbaa !15
  %.not.i.i4 = icmp eq ptr %25, %23
  br i1 %.not.i.i4, label %_ZNSt6vectorIN2cv6Point_IiEESaIS2_EE5clearEv.exit5, label %26

26:                                               ; preds = %_ZNSt6vectorIN2cv6Point_IiEESaIS2_EE5clearEv.exit3
  store ptr %23, ptr %24, align 8, !tbaa !15
  br label %_ZNSt6vectorIN2cv6Point_IiEESaIS2_EE5clearEv.exit5

_ZNSt6vectorIN2cv6Point_IiEESaIS2_EE5clearEv.exit5: ; preds = %_ZNSt6vectorIN2cv6Point_IiEESaIS2_EE5clearEv.exit3, %26
  %27 = getelementptr inbounds nuw i8, ptr %0, i64 376
  %28 = load ptr, ptr %27, align 8, !tbaa !12
  %29 = getelementptr inbounds nuw i8, ptr %0, i64 384
  %30 = load ptr, ptr %29, align 8, !tbaa !15
  %.not.i.i6 = icmp eq ptr %30, %28
  br i1 %.not.i.i6, label %_ZNSt6vectorIN2cv6Point_IiEESaIS2_EE5clearEv.exit7, label %31

31:                                               ; preds = %_ZNSt6vectorIN2cv6Point_IiEESaIS2_EE5clearEv.exit5
  store ptr %28, ptr %29, align 8, !tbaa !15
  br label %_ZNSt6vectorIN2cv6Point_IiEESaIS2_EE5clearEv.exit7

_ZNSt6vectorIN2cv6Point_IiEESaIS2_EE5clearEv.exit7: ; preds = %_ZNSt6vectorIN2cv6Point_IiEESaIS2_EE5clearEv.exit5, %31
  %32 = getelementptr inbounds nuw i8, ptr %0, i64 304
  %33 = getelementptr inbounds nuw i8, ptr %0, i64 424
  store i32 0, ptr %33, align 8, !tbaa !16
  store i32 0, ptr %32, align 8
  ret void
}